; Function Attrs: mustprogress nofree nosync nounwind willreturn memory(read, inaccessiblemem: none) uwtable
define internal fastcc { ptr, ptr } @_ZN12_GLOBAL__N_130GetContainedAutoTypeLocVisitor34VisitHLSLAttributedResourceTypeLocEN5clang29HLSLAttributedResourceTypeLocE(i64 %.32.val, ptr %0) unnamed_addr #8 align 2 {
  %2 = ptrtoint ptr %0 to i64
  %3 = add i64 %2, 8
  %4 = tail call noundef i32 @_ZN5clang7TypeLoc24getLocalAlignmentForTypeENS_8QualTypeE(i64 %.32.val)
  %5 = icmp ne i64 %3, 0
  %6 = zext i1 %5 to i64
  %7 = sub i64 %3, %6
  %8 = zext nneg i32 %4 to i64
  %9 = udiv i64 %7, %8
  %10 = add i64 %9, %6
  %11 = mul i64 %10, %8
  %12 = inttoptr i64 %11 to ptr
  %13 = inttoptr i64 %.32.val to ptr
  %14 = tail call fastcc { ptr, ptr } @_ZN5clang14TypeLocVisitorIN12_GLOBAL__N_130GetContainedAutoTypeLocVisitorENS_7TypeLocEE5VisitES3_(ptr %13, ptr %12)
  ret { ptr, ptr } %14
}